target datalayout = "e-m:e-p270:32:32-p271:32:32-p272:64:64-i64:64-i128:128-f80:128-n8:16:32:64-S128"
target triple = "x86_64-pc-linux-gnu"

%"class.pbrt::Point3" = type { %"class.pbrt::Tuple3" }
%"class.pbrt::Tuple3" = type { float, float, float }
%"class.pbrt::Vector3" = type { %"class.pbrt::Tuple3.3" }
%"class.pbrt::Tuple3.3" = type { float, float, float }
%"class.pbrt::Normal3" = type { %"class.pbrt::Tuple3.4" }
%"class.pbrt::Tuple3.4" = type { float, float, float }
%"class.pstd::span" = type { ptr, i64 }
%"struct.pbrt::CurveCommon" = type <{ i32, [4 x %"class.pbrt::Point3"], [2 x float], [2 x %"class.pbrt::Normal3"], float, float, [4 x i8], ptr, ptr, i8, i8, [6 x i8] }>
%"class.pbrt::Curve" = type { ptr, float, float }
%"class.pstd::array.64" = type { [4 x %"class.pbrt::Point3"] }

; Function Attrs: inlinehint mustprogress nounwind uwtable
define linkonce_odr dso_local noundef float @_ZN4pbrt3SqrIfEET_S1_(float noundef %0) #3 comdat {
  %2 = alloca float, align 4
  store float %0, ptr %2, align 4, !tbaa !9
  %3 = load float, ptr %2, align 4, !tbaa !9
  %4 = load float, ptr %2, align 4, !tbaa !9
  %5 = fmul float %3, %4
  ret float %5
}

; Function Attrs: mustprogress nounwind uwtable
define linkonce_odr dso_local void @_ZN4pbrt6Tuple3INS_7Vector3EfEC2Efff(ptr noundef nonnull align 4 dereferenceable(12) %0, float noundef %1, float noundef %2, float noundef %3) unnamed_addr #6 comdat align 2 {
  %5 = alloca ptr, align 8
  %6 = alloca float, align 4
  %7 = alloca float, align 4
  %8 = alloca float, align 4
  store ptr %0, ptr %5, align 8, !tbaa !218
  store float %1, ptr %6, align 4, !tbaa !9
  store float %2, ptr %7, align 4, !tbaa !9
  store float %3, ptr %8, align 4, !tbaa !9
  %9 = load ptr, ptr %5, align 8
  %10 = getelementptr inbounds nuw %"class.pbrt::Tuple3.3", ptr %9, i32 0, i32 0
  %11 = load float, ptr %6, align 4, !tbaa !9
  store float %11, ptr %10, align 4, !tbaa !55
  %12 = getelementptr inbounds nuw %"class.pbrt::Tuple3.3", ptr %9, i32 0, i32 1
  %13 = load float, ptr %7, align 4, !tbaa !9
  store float %13, ptr %12, align 4, !tbaa !56
  %14 = getelementptr inbounds nuw %"class.pbrt::Tuple3.3", ptr %9, i32 0, i32 2
  %15 = load float, ptr %8, align 4, !tbaa !9
  store float %15, ptr %14, align 4, !tbaa !57
  br label %16

16:                                               ; preds = %4
  br label %17

17:                                               ; preds = %16
  ret void
}

; Function Attrs: inlinehint mustprogress nounwind uwtable
define linkonce_odr dso_local noundef float @_ZSt4sqrtf(float noundef %0) #3 comdat {
  %2 = alloca float, align 4
  store float %0, ptr %2, align 4, !tbaa !9
  %3 = load float, ptr %2, align 4, !tbaa !9
  %4 = call float @sqrtf(float noundef %3) #23, !tbaa !60
  ret float %4
}

; Function Attrs: inlinehint mustprogress nounwind uwtable
define linkonce_odr dso_local noundef float @_ZN4pbrt13LengthSquaredIfEET_NS_7Vector3IS1_EE(<2 x float> %0, float %1) #11 comdat {
  %3 = alloca %"class.pbrt::Vector3", align 4
  %4 = alloca { <2 x float>, float }, align 4
  %5 = getelementptr inbounds nuw { <2 x float>, float }, ptr %4, i32 0, i32 0
  store <2 x float> %0, ptr %5, align 4
  %6 = getelementptr inbounds nuw { <2 x float>, float }, ptr %4, i32 0, i32 1
  store float %1, ptr %6, align 4
  call void @llvm.memcpy.p0.p0.i64(ptr align 4 %3, ptr align 4 %4, i64 12, i1 false)
  %7 = getelementptr inbounds nuw %"class.pbrt::Tuple3.3", ptr %3, i32 0, i32 0
  %8 = load float, ptr %7, align 4, !tbaa !55
  %9 = call noundef float @_ZN4pbrt3SqrIfEET_S1_(float noundef %8)
  %10 = getelementptr inbounds nuw %"class.pbrt::Tuple3.3", ptr %3, i32 0, i32 1
  %11 = load float, ptr %10, align 4, !tbaa !56
  %12 = call noundef float @_ZN4pbrt3SqrIfEET_S1_(float noundef %11)
  %13 = fadd float %9, %12
  %14 = getelementptr inbounds nuw %"class.pbrt::Tuple3.3", ptr %3, i32 0, i32 2
  %15 = load float, ptr %14, align 4, !tbaa !57
  %16 = call noundef float @_ZN4pbrt3SqrIfEET_S1_(float noundef %15)
  %17 = fadd float %13, %16
  ret float %17
}

; Function Attrs: mustprogress nounwind uwtable
define linkonce_odr dso_local void @_ZN4pbrt7Vector3IfEC2Efff(ptr noundef nonnull align 4 dereferenceable(12) %0, float noundef %1, float noundef %2, float noundef %3) unnamed_addr #6 comdat align 2 {
  %5 = alloca ptr, align 8
  %6 = alloca float, align 4
  %7 = alloca float, align 4
  %8 = alloca float, align 4
  store ptr %0, ptr %5, align 8, !tbaa !62
  store float %1, ptr %6, align 4, !tbaa !9
  store float %2, ptr %7, align 4, !tbaa !9
  store float %3, ptr %8, align 4, !tbaa !9
  %9 = load ptr, ptr %5, align 8
  %10 = load float, ptr %6, align 4, !tbaa !9
  %11 = load float, ptr %7, align 4, !tbaa !9
  %12 = load float, ptr %8, align 4, !tbaa !9
  call void @_ZN4pbrt6Tuple3INS_7Vector3EfEC2Efff(ptr noundef nonnull align 4 dereferenceable(12) %9, float noundef %10, float noundef %11, float noundef %12)
  ret void
}

; Function Attrs: inlinehint mustprogress nounwind uwtable
define linkonce_odr dso_local noundef float @_ZN4pbrt6LengthIfEENS_12_GLOBAL__N_111TupleLengthIT_E4typeENS_7Vector3IS3_EE(<2 x float> %0, float %1) #11 comdat {
  %3 = alloca %"class.pbrt::Vector3", align 4
  %4 = alloca { <2 x float>, float }, align 4
  %5 = alloca %"class.pbrt::Vector3", align 4
  %6 = alloca { <2 x float>, float }, align 4
  %7 = getelementptr inbounds nuw { <2 x float>, float }, ptr %4, i32 0, i32 0
  store <2 x float> %0, ptr %7, align 4
  %8 = getelementptr inbounds nuw { <2 x float>, float }, ptr %4, i32 0, i32 1
  store float %1, ptr %8, align 4
  call void @llvm.memcpy.p0.p0.i64(ptr align 4 %3, ptr align 4 %4, i64 12, i1 false)
  call void @llvm.memcpy.p0.p0.i64(ptr align 4 %5, ptr align 4 %3, i64 12, i1 false)
  call void @llvm.memcpy.p0.p0.i64(ptr align 4 %6, ptr align 4 %5, i64 12, i1 false)
  %9 = getelementptr inbounds nuw { <2 x float>, float }, ptr %6, i32 0, i32 0
  %10 = load <2 x float>, ptr %9, align 4
  %11 = getelementptr inbounds nuw { <2 x float>, float }, ptr %6, i32 0, i32 1
  %12 = load float, ptr %11, align 4
  %13 = call noundef float @_ZN4pbrt13LengthSquaredIfEET_NS_7Vector3IS1_EE(<2 x float> %10, float %12)
  %14 = call noundef float @_ZSt4sqrtf(float noundef %13)
  ret float %14
}

; Function Attrs: mustprogress uwtable
define linkonce_odr dso_local { <2 x float>, float } @_ZNK4pbrt6Point3IfEmiIfEENS_7Vector3IDTmitlfEtlT_EEEENS0_IS4_EE(ptr noundef nonnull align 4 dereferenceable(12) %0, <2 x float> %1, float %2) #5 comdat align 2 {
  %4 = alloca %"class.pbrt::Vector3", align 4
  %5 = alloca %"class.pbrt::Point3", align 4
  %6 = alloca { <2 x float>, float }, align 4
  %7 = alloca ptr, align 8
  %8 = alloca { <2 x float>, float }, align 8
  %9 = getelementptr inbounds nuw { <2 x float>, float }, ptr %6, i32 0, i32 0
  store <2 x float> %1, ptr %9, align 4
  %10 = getelementptr inbounds nuw { <2 x float>, float }, ptr %6, i32 0, i32 1
  store float %2, ptr %10, align 4
  call void @llvm.memcpy.p0.p0.i64(ptr align 4 %5, ptr align 4 %6, i64 12, i1 false)
  store ptr %0, ptr %7, align 8, !tbaa !23
  %11 = load ptr, ptr %7, align 8
  br label %12

12:                                               ; preds = %3
  br label %13

13:                                               ; preds = %12
  %14 = getelementptr inbounds nuw %"class.pbrt::Tuple3", ptr %11, i32 0, i32 0
  %15 = load float, ptr %14, align 4, !tbaa !28
  %16 = getelementptr inbounds nuw %"class.pbrt::Tuple3", ptr %5, i32 0, i32 0
  %17 = load float, ptr %16, align 4, !tbaa !28
  %18 = fsub float %15, %17
  %19 = getelementptr inbounds nuw %"class.pbrt::Tuple3", ptr %11, i32 0, i32 1
  %20 = load float, ptr %19, align 4, !tbaa !30
  %21 = getelementptr inbounds nuw %"class.pbrt::Tuple3", ptr %5, i32 0, i32 1
  %22 = load float, ptr %21, align 4, !tbaa !30
  %23 = fsub float %20, %22
  %24 = getelementptr inbounds nuw %"class.pbrt::Tuple3", ptr %11, i32 0, i32 2
  %25 = load float, ptr %24, align 4, !tbaa !31
  %26 = getelementptr inbounds nuw %"class.pbrt::Tuple3", ptr %5, i32 0, i32 2
  %27 = load float, ptr %26, align 4, !tbaa !31
  %28 = fsub float %25, %27
  call void @_ZN4pbrt7Vector3IfEC2Efff(ptr noundef nonnull align 4 dereferenceable(12) %4, float noundef %18, float noundef %23, float noundef %28)
  %29 = getelementptr inbounds nuw %"class.pbrt::Vector3", ptr %4, i32 0, i32 0
  call void @llvm.memcpy.p0.p0.i64(ptr align 8 %8, ptr align 4 %29, i64 12, i1 false)
  %30 = load { <2 x float>, float }, ptr %8, align 8
  ret { <2 x float>, float } %30
}

; Function Attrs: noinline noreturn nounwind uwtable
define linkonce_odr hidden void @__clang_call_terminate(ptr noundef %0) #17 comdat {
  %2 = call ptr @__cxa_begin_catch(ptr %0) #23
  call void @_ZSt9terminatev() #25
  unreachable
}

; Function Attrs: mustprogress nounwind uwtable
define linkonce_odr dso_local void @_ZN4pstd4spanIKN4pbrt6Point3IfEEEC2EPS4_m(ptr noundef nonnull align 8 dereferenceable(16) %0, ptr noundef %1, i64 noundef %2) unnamed_addr #6 comdat align 2 {
  %4 = alloca ptr, align 8
  %5 = alloca ptr, align 8
  %6 = alloca i64, align 8
  store ptr %0, ptr %4, align 8, !tbaa !276
  store ptr %1, ptr %5, align 8, !tbaa !23
  store i64 %2, ptr %6, align 8, !tbaa !146
  %7 = load ptr, ptr %4, align 8
  %8 = getelementptr inbounds nuw %"class.pstd::span", ptr %7, i32 0, i32 0
  %9 = load ptr, ptr %5, align 8, !tbaa !23
  store ptr %9, ptr %8, align 8, !tbaa !280
  %10 = getelementptr inbounds nuw %"class.pstd::span", ptr %7, i32 0, i32 1
  %11 = load i64, ptr %6, align 8, !tbaa !146
  store i64 %11, ptr %10, align 8, !tbaa !278
  ret void
}

; Function Attrs: inlinehint mustprogress uwtable
define linkonce_odr dso_local noundef float @_ZN4pbrt8DistanceIfEEDaNS_6Point3IT_EES3_(<2 x float> %0, float %1, <2 x float> %2, float %3) #8 comdat {
  %5 = alloca %"class.pbrt::Point3", align 4
  %6 = alloca { <2 x float>, float }, align 4
  %7 = alloca %"class.pbrt::Point3", align 4
  %8 = alloca { <2 x float>, float }, align 4
  %9 = alloca %"class.pbrt::Vector3", align 4
  %10 = alloca %"class.pbrt::Point3", align 4
  %11 = alloca { <2 x float>, float }, align 4
  %12 = alloca { <2 x float>, float }, align 8
  %13 = alloca { <2 x float>, float }, align 4
  %14 = getelementptr inbounds nuw { <2 x float>, float }, ptr %6, i32 0, i32 0
  store <2 x float> %0, ptr %14, align 4
  %15 = getelementptr inbounds nuw { <2 x float>, float }, ptr %6, i32 0, i32 1
  store float %1, ptr %15, align 4
  call void @llvm.memcpy.p0.p0.i64(ptr align 4 %5, ptr align 4 %6, i64 12, i1 false)
  %16 = getelementptr inbounds nuw { <2 x float>, float }, ptr %8, i32 0, i32 0
  store <2 x float> %2, ptr %16, align 4
  %17 = getelementptr inbounds nuw { <2 x float>, float }, ptr %8, i32 0, i32 1
  store float %3, ptr %17, align 4
  call void @llvm.memcpy.p0.p0.i64(ptr align 4 %7, ptr align 4 %8, i64 12, i1 false)
  call void @llvm.memcpy.p0.p0.i64(ptr align 4 %10, ptr align 4 %7, i64 12, i1 false)
  call void @llvm.memcpy.p0.p0.i64(ptr align 4 %11, ptr align 4 %10, i64 12, i1 false)
  %18 = getelementptr inbounds nuw { <2 x float>, float }, ptr %11, i32 0, i32 0
  %19 = load <2 x float>, ptr %18, align 4
  %20 = getelementptr inbounds nuw { <2 x float>, float }, ptr %11, i32 0, i32 1
  %21 = load float, ptr %20, align 4
  %22 = call { <2 x float>, float } @_ZNK4pbrt6Point3IfEmiIfEENS_7Vector3IDTmitlfEtlT_EEEENS0_IS4_EE(ptr noundef nonnull align 4 dereferenceable(12) %5, <2 x float> %19, float %21)
  %23 = getelementptr inbounds nuw %"class.pbrt::Vector3", ptr %9, i32 0, i32 0
  store { <2 x float>, float } %22, ptr %12, align 8
  call void @llvm.memcpy.p0.p0.i64(ptr align 4 %23, ptr align 8 %12, i64 12, i1 false)
  call void @llvm.memcpy.p0.p0.i64(ptr align 4 %13, ptr align 4 %9, i64 12, i1 false)
  %24 = getelementptr inbounds nuw { <2 x float>, float }, ptr %13, i32 0, i32 0
  %25 = load <2 x float>, ptr %24, align 4
  %26 = getelementptr inbounds nuw { <2 x float>, float }, ptr %13, i32 0, i32 1
  %27 = load float, ptr %26, align 4
  %28 = call noundef float @_ZN4pbrt6LengthIfEENS_12_GLOBAL__N_111TupleLengthIT_E4typeENS_7Vector3IS3_EE(<2 x float> %25, float %27)
  ret float %28
}

; Function Attrs: mustprogress nounwind uwtable
define linkonce_odr dso_local noundef nonnull align 4 dereferenceable(12) ptr @_ZN4pstd5arrayIN4pbrt6Point3IfEELi4EEixEm(ptr noundef nonnull align 4 dereferenceable(48) %0, i64 noundef %1) #6 comdat align 2 {
  %3 = alloca ptr, align 8
  %4 = alloca i64, align 8
  store ptr %0, ptr %3, align 8, !tbaa !302
  store i64 %1, ptr %4, align 8, !tbaa !146
  %5 = load ptr, ptr %3, align 8
  %6 = getelementptr inbounds nuw %"class.pstd::array.64", ptr %5, i32 0, i32 0
  %7 = load i64, ptr %4, align 8, !tbaa !146
  %8 = getelementptr inbounds nuw [4 x %"class.pbrt::Point3"], ptr %6, i64 0, i64 %7
  ret ptr %8
}

; Function Attrs: inlinehint mustprogress nounwind uwtable
define linkonce_odr dso_local noundef float @_ZN4pbrt4LerpEfff(float noundef %0, float noundef %1, float noundef %2) #3 comdat {
  %4 = alloca float, align 4
  %5 = alloca float, align 4
  %6 = alloca float, align 4
  store float %0, ptr %4, align 4, !tbaa !9
  store float %1, ptr %5, align 4, !tbaa !9
  store float %2, ptr %6, align 4, !tbaa !9
  %7 = load float, ptr %4, align 4, !tbaa !9
  %8 = fsub float 1.000000e+00, %7
  %9 = load float, ptr %5, align 4, !tbaa !9
  %10 = fmul float %8, %9
  %11 = load float, ptr %4, align 4, !tbaa !9
  %12 = load float, ptr %6, align 4, !tbaa !9
  %13 = fmul float %11, %12
  %14 = fadd float %10, %13
  ret float %14
}

; Function Attrs: inlinehint mustprogress nounwind uwtable
define linkonce_odr dso_local { ptr, i64 } @_ZN4pstd13MakeConstSpanITpTnRiJEN4pbrt6Point3IfEELm4EEENS_4spanIKT0_EERAT1__S7_(ptr noundef nonnull align 4 dereferenceable(48) %0) #3 comdat personality ptr @__gxx_personality_v0 {
  %2 = alloca %"class.pstd::span", align 8
  %3 = alloca ptr, align 8
  store ptr %0, ptr %3, align 8, !tbaa !23
  %4 = load ptr, ptr %3, align 8, !tbaa !23
  %5 = getelementptr inbounds [4 x %"class.pbrt::Point3"], ptr %4, i64 0, i64 0
  invoke void @_ZN4pstd4spanIKN4pbrt6Point3IfEEEC2EPS4_m(ptr noundef nonnull align 8 dereferenceable(16) %2, ptr noundef %5, i64 noundef 4)
          to label %6 unwind label %8

6:                                                ; preds = %1
  %7 = load { ptr, i64 }, ptr %2, align 8
  ret { ptr, i64 } %7

8:                                                ; preds = %1
  %9 = landingpad { ptr, i32 }
          catch ptr null
  %10 = extractvalue { ptr, i32 } %9, 0
  call void @__clang_call_terminate(ptr %10) #25
  unreachable
}

; Function Attrs: mustprogress uwtable
define dso_local noundef float @_ZNK4pbrt5Curve4AreaEv(ptr noundef nonnull align 8 dereferenceable(16) %0) #5 align 2 {
  %2 = alloca ptr, align 8
  %3 = alloca %"class.pstd::array.64", align 4
  %4 = alloca %"class.pstd::span", align 8
  %5 = alloca float, align 4
  %6 = alloca float, align 4
  %7 = alloca float, align 4
  %8 = alloca float, align 4
  %9 = alloca i32, align 4
  %10 = alloca %"class.pbrt::Point3", align 4
  %11 = alloca %"class.pbrt::Point3", align 4
  %12 = alloca { <2 x float>, float }, align 4
  %13 = alloca { <2 x float>, float }, align 4
  store ptr %0, ptr %2, align 8, !tbaa !288
  %14 = load ptr, ptr %2, align 8
  call void @llvm.lifetime.start.p0(i64 48, ptr %3) #23
  %15 = getelementptr inbounds nuw %"class.pbrt::Curve", ptr %14, i32 0, i32 0
  %16 = load ptr, ptr %15, align 8, !tbaa !293
  %17 = getelementptr inbounds nuw %"struct.pbrt::CurveCommon", ptr %16, i32 0, i32 1
  %18 = call { ptr, i64 } @_ZN4pstd13MakeConstSpanITpTnRiJEN4pbrt6Point3IfEELm4EEENS_4spanIKT0_EERAT1__S7_(ptr noundef nonnull align 4 dereferenceable(48) %17) #23
  %19 = getelementptr inbounds nuw { ptr, i64 }, ptr %4, i32 0, i32 0
  %20 = extractvalue { ptr, i64 } %18, 0
  store ptr %20, ptr %19, align 8
  %21 = getelementptr inbounds nuw { ptr, i64 }, ptr %4, i32 0, i32 1
  %22 = extractvalue { ptr, i64 } %18, 1
  store i64 %22, ptr %21, align 8
  %23 = getelementptr inbounds nuw %"class.pbrt::Curve", ptr %14, i32 0, i32 1
  %24 = load float, ptr %23, align 8, !tbaa !296
  %25 = getelementptr inbounds nuw %"class.pbrt::Curve", ptr %14, i32 0, i32 2
  %26 = load float, ptr %25, align 4, !tbaa !297
  %27 = getelementptr inbounds nuw { ptr, i64 }, ptr %4, i32 0, i32 0
  %28 = load ptr, ptr %27, align 8
  %29 = getelementptr inbounds nuw { ptr, i64 }, ptr %4, i32 0, i32 1
  %30 = load i64, ptr %29, align 8
  call void @_ZN4pbrt24CubicBezierControlPointsEN4pstd4spanIKNS_6Point3IfEEEEff(ptr dead_on_unwind writable sret(%"class.pstd::array.64") align 4 %3, ptr %28, i64 %30, float noundef %24, float noundef %26)
  call void @llvm.lifetime.start.p0(i64 4, ptr %5) #23
  %31 = getelementptr inbounds nuw %"class.pbrt::Curve", ptr %14, i32 0, i32 1
  %32 = load float, ptr %31, align 8, !tbaa !296
  %33 = getelementptr inbounds nuw %"class.pbrt::Curve", ptr %14, i32 0, i32 0
  %34 = load ptr, ptr %33, align 8, !tbaa !293
  %35 = getelementptr inbounds nuw %"struct.pbrt::CurveCommon", ptr %34, i32 0, i32 2
  %36 = getelementptr inbounds [2 x float], ptr %35, i64 0, i64 0
  %37 = load float, ptr %36, align 4, !tbaa !9
  %38 = getelementptr inbounds nuw %"class.pbrt::Curve", ptr %14, i32 0, i32 0
  %39 = load ptr, ptr %38, align 8, !tbaa !293
  %40 = getelementptr inbounds nuw %"struct.pbrt::CurveCommon", ptr %39, i32 0, i32 2
  %41 = getelementptr inbounds [2 x float], ptr %40, i64 0, i64 1
  %42 = load float, ptr %41, align 4, !tbaa !9
  %43 = call noundef float @_ZN4pbrt4LerpEfff(float noundef %32, float noundef %37, float noundef %42)
  store float %43, ptr %5, align 4, !tbaa !9
  call void @llvm.lifetime.start.p0(i64 4, ptr %6) #23
  %44 = getelementptr inbounds nuw %"class.pbrt::Curve", ptr %14, i32 0, i32 2
  %45 = load float, ptr %44, align 4, !tbaa !297
  %46 = getelementptr inbounds nuw %"class.pbrt::Curve", ptr %14, i32 0, i32 0
  %47 = load ptr, ptr %46, align 8, !tbaa !293
  %48 = getelementptr inbounds nuw %"struct.pbrt::CurveCommon", ptr %47, i32 0, i32 2
  %49 = getelementptr inbounds [2 x float], ptr %48, i64 0, i64 0
  %50 = load float, ptr %49, align 4, !tbaa !9
  %51 = getelementptr inbounds nuw %"class.pbrt::Curve", ptr %14, i32 0, i32 0
  %52 = load ptr, ptr %51, align 8, !tbaa !293
  %53 = getelementptr inbounds nuw %"struct.pbrt::CurveCommon", ptr %52, i32 0, i32 2
  %54 = getelementptr inbounds [2 x float], ptr %53, i64 0, i64 1
  %55 = load float, ptr %54, align 4, !tbaa !9
  %56 = call noundef float @_ZN4pbrt4LerpEfff(float noundef %45, float noundef %50, float noundef %55)
  store float %56, ptr %6, align 4, !tbaa !9
  call void @llvm.lifetime.start.p0(i64 4, ptr %7) #23
  %57 = load float, ptr %5, align 4, !tbaa !9
  %58 = load float, ptr %6, align 4, !tbaa !9
  %59 = fadd float %57, %58
  %60 = fmul float %59, 5.000000e-01
  store float %60, ptr %7, align 4, !tbaa !9
  call void @llvm.lifetime.start.p0(i64 4, ptr %8) #23
  store float 0.000000e+00, ptr %8, align 4, !tbaa !9
  call void @llvm.lifetime.start.p0(i64 4, ptr %9) #23
  store i32 0, ptr %9, align 4, !tbaa !60
  br label %61

61:                                               ; preds = %84, %1
  %62 = load i32, ptr %9, align 4, !tbaa !60
  %63 = icmp slt i32 %62, 3
  br i1 %63, label %65, label %64

64:                                               ; preds = %61
  call void @llvm.lifetime.end.p0(i64 4, ptr %9) #23
  br label %87

65:                                               ; preds = %61
  %66 = load i32, ptr %9, align 4, !tbaa !60
  %67 = sext i32 %66 to i64
  %68 = call noundef nonnull align 4 dereferenceable(12) ptr @_ZN4pstd5arrayIN4pbrt6Point3IfEELi4EEixEm(ptr noundef nonnull align 4 dereferenceable(48) %3, i64 noundef %67)
  call void @llvm.memcpy.p0.p0.i64(ptr align 4 %10, ptr align 4 %68, i64 12, i1 false)
  %69 = load i32, ptr %9, align 4, !tbaa !60
  %70 = add nsw i32 %69, 1
  %71 = sext i32 %70 to i64
  %72 = call noundef nonnull align 4 dereferenceable(12) ptr @_ZN4pstd5arrayIN4pbrt6Point3IfEELi4EEixEm(ptr noundef nonnull align 4 dereferenceable(48) %3, i64 noundef %71)
  call void @llvm.memcpy.p0.p0.i64(ptr align 4 %11, ptr align 4 %72, i64 12, i1 false)
  call void @llvm.memcpy.p0.p0.i64(ptr align 4 %12, ptr align 4 %10, i64 12, i1 false)
  %73 = getelementptr inbounds nuw { <2 x float>, float }, ptr %12, i32 0, i32 0
  %74 = load <2 x float>, ptr %73, align 4
  %75 = getelementptr inbounds nuw { <2 x float>, float }, ptr %12, i32 0, i32 1
  %76 = load float, ptr %75, align 4
  call void @llvm.memcpy.p0.p0.i64(ptr align 4 %13, ptr align 4 %11, i64 12, i1 false)
  %77 = getelementptr inbounds nuw { <2 x float>, float }, ptr %13, i32 0, i32 0
  %78 = load <2 x float>, ptr %77, align 4
  %79 = getelementptr inbounds nuw { <2 x float>, float }, ptr %13, i32 0, i32 1
  %80 = load float, ptr %79, align 4
  %81 = call noundef float @_ZN4pbrt8DistanceIfEEDaNS_6Point3IT_EES3_(<2 x float> %74, float %76, <2 x float> %78, float %80)
  %82 = load float, ptr %8, align 4, !tbaa !9
  %83 = fadd float %82, %81
  store float %83, ptr %8, align 4, !tbaa !9
  br label %84

84:                                               ; preds = %65
  %85 = load i32, ptr %9, align 4, !tbaa !60
  %86 = add nsw i32 %85, 1
  store i32 %86, ptr %9, align 4, !tbaa !60
  br label %61, !llvm.loop !298

87:                                               ; preds = %64
  %88 = load float, ptr %8, align 4, !tbaa !9
  %89 = load float, ptr %7, align 4, !tbaa !9
  %90 = fmul float %88, %89
  call void @llvm.lifetime.end.p0(i64 4, ptr %8) #23
  call void @llvm.lifetime.end.p0(i64 4, ptr %7) #23
  call void @llvm.lifetime.end.p0(i64 4, ptr %6) #23
  call void @llvm.lifetime.end.p0(i64 4, ptr %5) #23
  call void @llvm.lifetime.end.p0(i64 48, ptr %3) #23
  ret float %90
}