; Function Attrs: mustprogress uwtable
define dso_local noundef float @_ZNK4pbrt5Curve4AreaEv(ptr noundef nonnull readonly align 8 captures(none) dereferenceable(16) %0) local_unnamed_addr #2 align 2 personality ptr @__gxx_personality_v0 {
  %2 = alloca %"class.pstd::array.64", align 8
  call void @llvm.lifetime.start.p0(i64 48, ptr nonnull %2) #31
  %3 = load ptr, ptr %0, align 8, !tbaa !224
  %4 = getelementptr inbounds nuw i8, ptr %3, i64 4
  %5 = getelementptr inbounds nuw i8, ptr %0, i64 8
  %6 = load float, ptr %5, align 8, !tbaa !227
  %7 = getelementptr inbounds nuw i8, ptr %0, i64 12
  %8 = load float, ptr %7, align 4, !tbaa !228
  call void @_ZN4pbrt24CubicBezierControlPointsEN4pstd4spanIKNS_6Point3IfEEEEff(ptr dead_on_unwind nonnull writable sret(%"class.pstd::array.64") align 4 %2, ptr nonnull %4, i64 4, float noundef %6, float noundef %8)
  %9 = load float, ptr %5, align 8, !tbaa !227
  %10 = load ptr, ptr %0, align 8, !tbaa !224
  %11 = getelementptr inbounds nuw i8, ptr %10, i64 52
  %12 = load float, ptr %11, align 4, !tbaa !17
  %13 = getelementptr inbounds nuw i8, ptr %10, i64 56
  %14 = load float, ptr %13, align 4, !tbaa !17
  %15 = load float, ptr %7, align 4, !tbaa !228
  %.sroa.05.0.copyload.pre = load <2 x float>, ptr %2, align 8
  %.sroa.26.0..sroa_idx.phi.trans.insert = getelementptr inbounds nuw i8, ptr %2, i64 8
  %.sroa.26.0.copyload.pre = load float, ptr %.sroa.26.0..sroa_idx.phi.trans.insert, align 8
  br label %28

16:                                               ; preds = %28
  %17 = fsub float 1.000000e+00, %15
  %18 = fmul float %12, %17
  %19 = fmul float %14, %15
  %20 = fadd float %19, %18
  %21 = fsub float 1.000000e+00, %9
  %22 = fmul float %21, %12
  %23 = fmul float %9, %14
  %24 = fadd float %22, %23
  %25 = fadd float %24, %20
  %26 = fmul float %25, 5.000000e-01
  %27 = fmul float %26, %39
  call void @llvm.lifetime.end.p0(i64 48, ptr nonnull %2) #31
  ret float %27

28:                                               ; preds = %1, %28
  %.sroa.26.0.copyload = phi float [ %.sroa.26.0.copyload.pre, %1 ], [ %.sroa.24.0.copyload, %28 ]
  %.sroa.05.0.copyload = phi <2 x float> [ %.sroa.05.0.copyload.pre, %1 ], [ %.sroa.03.0.copyload, %28 ]
  %indvars.iv = phi i64 [ 0, %1 ], [ %indvars.iv.next, %28 ]
  %.019 = phi float [ 0.000000e+00, %1 ], [ %39, %28 ]
  %indvars.iv.next = add nuw nsw i64 %indvars.iv, 1
  %29 = getelementptr inbounds nuw [4 x %"class.pbrt::Point3"], ptr %2, i64 0, i64 %indvars.iv.next
  %.sroa.03.0.copyload = load <2 x float>, ptr %29, align 4
  %.sroa.24.0..sroa_idx = getelementptr inbounds nuw i8, ptr %29, i64 8
  %.sroa.24.0.copyload = load float, ptr %.sroa.24.0..sroa_idx, align 4
  %30 = fsub <2 x float> %.sroa.05.0.copyload, %.sroa.03.0.copyload
  %31 = fsub <2 x float> %.sroa.05.0.copyload, %.sroa.03.0.copyload
  %32 = fsub float %.sroa.26.0.copyload, %.sroa.24.0.copyload
  %33 = fmul <2 x float> %30, %30
  %34 = fmul <2 x float> %31, %31
  %shift = shufflevector <2 x float> %34, <2 x float> poison, <2 x i32> <i32 1, i32 poison>
  %35 = fadd <2 x float> %33, %shift
  %36 = extractelement <2 x float> %35, i64 0
  %37 = fmul float %32, %32
  %38 = fadd float %37, %36
  %sqrt.i.i = call noundef float @llvm.sqrt.f32(float %38)
  %39 = fadd float %.019, %sqrt.i.i
  %exitcond.not = icmp eq i64 %indvars.iv.next, 3
  br i1 %exitcond.not, label %16, label %28, !llvm.loop !239
}